target datalayout = "e-m:e-p270:32:32-p271:32:32-p272:64:64-i64:64-i128:128-f80:128-n8:16:32:64-S128"
target triple = "x86_64-pc-linux-gnu"

%struct._dcerpc_info = type { ptr, i32, i64, i8, i8, i8, i32, i32, i32, i32, i32, i32, i32, i32, ptr, ptr, ptr, ptr, %struct.anon }
%struct.anon = type { i8, ptr, ptr, ptr, i8 }

@hf_fileexp_bulkkeepalive_numexecfids = internal global i32 0, align 4
@hf_fileexp_bulkkeepalive_spare2 = internal global i32 0, align 4
@hf_fileexp_bulkkeepalive_spare1 = internal global i32 0, align 4
@.str.378 = private unnamed_addr constant [10 x i8] c"afsFlags:\00", align 1

; Function Attrs: null_pointer_is_valid sspstrong uwtable
define internal i32 @fileexp_dissect_bulkkeepalive_rqst(ptr noundef %0, i32 noundef %1, ptr noundef %2, ptr noundef %3, ptr noundef %4, ptr noundef %5) #0 {
  %7 = alloca i32, align 4
  %8 = alloca ptr, align 8
  %9 = alloca i32, align 4
  %10 = alloca ptr, align 8
  %11 = alloca ptr, align 8
  %12 = alloca ptr, align 8
  %13 = alloca ptr, align 8
  %14 = alloca i32, align 4
  %15 = alloca i32, align 4
  %16 = alloca i32, align 4
  %17 = alloca i32, align 4
  store ptr %0, ptr %8, align 8
  store i32 %1, ptr %9, align 4
  store ptr %2, ptr %10, align 8
  store ptr %3, ptr %11, align 8
  store ptr %4, ptr %12, align 8
  store ptr %5, ptr %13, align 8
  call void @llvm.lifetime.start.p0(i64 4, ptr %14) #4
  call void @llvm.lifetime.start.p0(i64 4, ptr %15) #4
  call void @llvm.lifetime.start.p0(i64 4, ptr %16) #4
  %18 = load ptr, ptr %12, align 8
  %19 = getelementptr inbounds nuw %struct._dcerpc_info, ptr %18, i32 0, i32 4
  %20 = load i8, ptr %19, align 1, !range !6, !noundef !7
  %21 = trunc i8 %20 to i1
  br i1 %21, label %22, label %24

22:                                               ; preds = %6
  %23 = load i32, ptr %9, align 4
  store i32 %23, ptr %7, align 4
  store i32 1, ptr %17, align 4
  br label %57

24:                                               ; preds = %6
  %25 = load ptr, ptr %8, align 8
  %26 = load i32, ptr %9, align 4
  %27 = load ptr, ptr %10, align 8
  %28 = load ptr, ptr %11, align 8
  %29 = load ptr, ptr %12, align 8
  %30 = load ptr, ptr %13, align 8
  %31 = load i32, ptr @hf_fileexp_bulkkeepalive_numexecfids, align 4
  %32 = call i32 @dissect_ndr_uint32(ptr noundef %25, i32 noundef %26, ptr noundef %27, ptr noundef %28, ptr noundef %29, ptr noundef %30, i32 noundef %31, ptr noundef %14)
  store i32 %32, ptr %9, align 4
  %33 = load ptr, ptr %8, align 8
  %34 = load i32, ptr %9, align 4
  %35 = load ptr, ptr %10, align 8
  %36 = load ptr, ptr %11, align 8
  %37 = load ptr, ptr %12, align 8
  %38 = load ptr, ptr %13, align 8
  %39 = call i32 @dissect_ndr_pointer(ptr noundef %33, i32 noundef %34, ptr noundef %35, ptr noundef %36, ptr noundef %37, ptr noundef %38, ptr noundef @dissect_afsFlags, i32 noundef 1, ptr noundef @.str.378, i32 noundef -1)
  store i32 %39, ptr %9, align 4
  %40 = load ptr, ptr %8, align 8
  %41 = load i32, ptr %9, align 4
  %42 = load ptr, ptr %10, align 8
  %43 = load ptr, ptr %11, align 8
  %44 = load ptr, ptr %12, align 8
  %45 = load ptr, ptr %13, align 8
  %46 = load i32, ptr @hf_fileexp_bulkkeepalive_spare1, align 4
  %47 = call i32 @dissect_ndr_uint32(ptr noundef %40, i32 noundef %41, ptr noundef %42, ptr noundef %43, ptr noundef %44, ptr noundef %45, i32 noundef %46, ptr noundef %15)
  store i32 %47, ptr %9, align 4
  %48 = load ptr, ptr %8, align 8
  %49 = load i32, ptr %9, align 4
  %50 = load ptr, ptr %10, align 8
  %51 = load ptr, ptr %11, align 8
  %52 = load ptr, ptr %12, align 8
  %53 = load ptr, ptr %13, align 8
  %54 = load i32, ptr @hf_fileexp_bulkkeepalive_spare2, align 4
  %55 = call i32 @dissect_ndr_uint32(ptr noundef %48, i32 noundef %49, ptr noundef %50, ptr noundef %51, ptr noundef %52, ptr noundef %53, i32 noundef %54, ptr noundef %16)
  store i32 %55, ptr %9, align 4
  %56 = load i32, ptr %9, align 4
  store i32 %56, ptr %7, align 4
  store i32 1, ptr %17, align 4
  br label %57

57:                                               ; preds = %24, %22
  call void @llvm.lifetime.end.p0(i64 4, ptr %16) #4
  call void @llvm.lifetime.end.p0(i64 4, ptr %15) #4
  call void @llvm.lifetime.end.p0(i64 4, ptr %14) #4
  %58 = load i32, ptr %7, align 4
  ret i32 %58
}